target datalayout = "e-m:e-p270:32:32-p271:32:32-p272:64:64-i64:64-i128:128-f80:128-n8:16:32:64-S128"
target triple = "x86_64-pc-linux-gnu"

%struct.pmix_object_t = type { %union.pthread_mutex_t, ptr, i32, %struct.pmix_tma }
%struct.pmix_tma = type { ptr, ptr, ptr, ptr, ptr, ptr, ptr, ptr }
%union.pthread_mutex_t = type { %struct.__pthread_mutex_s }
%struct.__pthread_mutex_s = type { i32, i32, i32, i32, i32, i16, i16, %struct.__pthread_internal_list }
%struct.__pthread_internal_list = type { ptr, ptr }
%struct.pmix_globals_t = type { i32, %struct.pmix_proc, %struct.pmix_value, %struct.pmix_value, ptr, i32, i32, ptr, i32, i32, i32, i32, i32, ptr, ptr, i32, %struct.pmix_events_t, i8, i8, %struct.timeval, %struct.pmix_list_t, %struct.pmix_pointer_array_t, i32, i32, %struct.pmix_hotel_t, i8, %struct.pmix_list_t, i8, i8, i8, i64, %struct.pmix_list_t, %struct.pmix_topology_t, %struct.pmix_cpuset_t, i8, i8, %struct.pmix_iof_flags_t, %struct.pmix_keyindex_t }
%struct.pmix_proc = type { [256 x i8], i32 }
%struct.pmix_value = type { i16, %union.anon }
%union.anon = type { %struct.pmix_envar_t }
%struct.pmix_envar_t = type { ptr, ptr, i8 }
%struct.pmix_events_t = type { %struct.pmix_object_t, i64, ptr, ptr, %struct.pmix_list_t, %struct.pmix_list_t, %struct.pmix_list_t, %struct.pmix_list_t }
%struct.timeval = type { i64, i64 }
%struct.pmix_pointer_array_t = type { %struct.pmix_object_t, i32, i32, i32, i32, i32, ptr, ptr }
%struct.pmix_hotel_t = type { %struct.pmix_object_t, i32, ptr, %struct.timeval, ptr, ptr, ptr, ptr, i32 }
%struct.pmix_list_t = type { %struct.pmix_object_t, %struct.pmix_list_item_t, i64 }
%struct.pmix_list_item_t = type { %struct.pmix_object_t, ptr, ptr, i32 }
%struct.pmix_topology_t = type { ptr, ptr }
%struct.pmix_cpuset_t = type { ptr, ptr }
%struct.pmix_iof_flags_t = type { i8, i8, i8, i8, i8, i8, i8, ptr, ptr, i8, i8, i8, i8, i8, i8 }
%struct.pmix_keyindex_t = type { %struct.pmix_object_t, ptr, i32 }
%struct.pmix_info = type { [512 x i8], i32, %struct.pmix_value }

@pmix_globals = external global %struct.pmix_globals_t, align 8
@.str.22 = private unnamed_addr constant [20 x i8] c"PMIX_KEEPALIVE_PIPE\00", align 1
@.str.80 = private unnamed_addr constant [14 x i8] c"pmix.evnondef\00", align 1
@.str.81 = private unnamed_addr constant [12 x i8] c"pmix.evproc\00", align 1

; Function Attrs: nounwind uwtable
define internal void @pdiedfn(i32 noundef %0, i16 noundef signext %1, ptr noundef %2) #0 {
  %4 = alloca i32, align 4
  %5 = alloca i16, align 2
  %6 = alloca ptr, align 8
  %7 = alloca [2 x %struct.pmix_info], align 16
  %8 = alloca %struct.pmix_proc, align 4
  store i32 %0, ptr %4, align 4, !tbaa !14
  store i16 %1, ptr %5, align 2, !tbaa !189
  store ptr %2, ptr %6, align 8, !tbaa !60
  call void @llvm.lifetime.start.p0(i64 1104, ptr %7) #13
  call void @llvm.lifetime.start.p0(i64 260, ptr %8) #13
  call void @PMIx_Load_procid(ptr noundef %8, ptr noundef @.str.22, i32 noundef -1)
  %9 = getelementptr inbounds [2 x %struct.pmix_info], ptr %7, i64 0, i64 0
  %10 = call i32 @PMIx_Info_load(ptr noundef %9, ptr noundef @.str.80, ptr noundef null, i16 noundef zeroext 1)
  %11 = getelementptr inbounds [2 x %struct.pmix_info], ptr %7, i64 0, i64 1
  %12 = call i32 @PMIx_Info_load(ptr noundef %11, ptr noundef @.str.81, ptr noundef %8, i16 noundef zeroext 22)
  %13 = getelementptr inbounds [2 x %struct.pmix_info], ptr %7, i64 0, i64 0
  %14 = call i32 @PMIx_Notify_event(i32 noundef -145, ptr noundef getelementptr inbounds nuw (%struct.pmix_globals_t, ptr @pmix_globals, i32 0, i32 1), i8 noundef zeroext 7, ptr noundef %13, i64 noundef 2, ptr noundef null, ptr noundef null)
  call void @llvm.lifetime.end.p0(i64 260, ptr %8) #13
  call void @llvm.lifetime.end.p0(i64 1104, ptr %7) #13
  ret void
}