; Function Attrs: nounwind uwtable
define internal void @pdiedfn(i32 %0, i16 signext %1, ptr readnone captures(none) %2) #0 {
  %4 = alloca [2 x %struct.pmix_info], align 16
  %5 = alloca %struct.pmix_proc, align 4
  call void @llvm.lifetime.start.p0(i64 1104, ptr nonnull %4) #19
  call void @llvm.lifetime.start.p0(i64 260, ptr nonnull %5) #19
  call void @PMIx_Load_procid(ptr noundef nonnull %5, ptr noundef nonnull @.str.22, i32 noundef -1) #19
  %6 = call i32 @PMIx_Info_load(ptr noundef nonnull %4, ptr noundef nonnull @.str.80, ptr noundef null, i16 noundef zeroext 1) #19
  %7 = getelementptr inbounds nuw i8, ptr %4, i64 552
  %8 = call i32 @PMIx_Info_load(ptr noundef nonnull %7, ptr noundef nonnull @.str.81, ptr noundef nonnull %5, i16 noundef zeroext 22) #19
  %9 = call i32 @PMIx_Notify_event(i32 noundef -145, ptr noundef nonnull getelementptr inbounds nuw (i8, ptr @pmix_globals, i64 4), i8 noundef zeroext 7, ptr noundef nonnull %4, i64 noundef 2, ptr noundef null, ptr noundef null) #19
  call void @llvm.lifetime.end.p0(i64 260, ptr nonnull %5) #19
  call void @llvm.lifetime.end.p0(i64 1104, ptr nonnull %4) #19
  ret void
}